target datalayout = "e-m:e-p270:32:32-p271:32:32-p272:64:64-i64:64-i128:128-f80:128-n8:16:32:64-S128"
target triple = "x86_64-pc-linux-gnu"

%struct.EVP_CAMELLIA_KEY = type { %struct.camellia_key_st, ptr, %union.anon.0 }
%struct.camellia_key_st = type { %union.anon, i32 }
%union.anon = type { double, [264 x i8] }
%union.anon.0 = type { ptr }

; Function Attrs: nounwind uwtable
define internal i32 @camellia_ecb_cipher(ptr noundef %0, ptr noundef %1, ptr noundef %2, i64 noundef %3) #0 {
  %5 = alloca i32, align 4
  %6 = alloca ptr, align 8
  %7 = alloca ptr, align 8
  %8 = alloca ptr, align 8
  %9 = alloca i64, align 8
  %10 = alloca i64, align 8
  %11 = alloca i64, align 8
  %12 = alloca ptr, align 8
  %13 = alloca i32, align 4
  store ptr %0, ptr %6, align 8, !tbaa !3
  store ptr %1, ptr %7, align 8, !tbaa !8
  store ptr %2, ptr %8, align 8, !tbaa !8
  store i64 %3, ptr %9, align 8, !tbaa !17
  call void @llvm.lifetime.start.p0(i64 8, ptr %10) #3
  %14 = load ptr, ptr %6, align 8, !tbaa !3
  %15 = call i32 @EVP_CIPHER_CTX_get_block_size(ptr noundef %14)
  %16 = sext i32 %15 to i64
  store i64 %16, ptr %10, align 8, !tbaa !17
  call void @llvm.lifetime.start.p0(i64 8, ptr %11) #3
  call void @llvm.lifetime.start.p0(i64 8, ptr %12) #3
  %17 = load ptr, ptr %6, align 8, !tbaa !3
  %18 = call ptr @EVP_CIPHER_CTX_get_cipher_data(ptr noundef %17)
  store ptr %18, ptr %12, align 8, !tbaa !12
  %19 = load i64, ptr %9, align 8, !tbaa !17
  %20 = load i64, ptr %10, align 8, !tbaa !17
  %21 = icmp ult i64 %19, %20
  br i1 %21, label %22, label %23

22:                                               ; preds = %4
  store i32 1, ptr %5, align 4
  store i32 1, ptr %13, align 4
  br label %48

23:                                               ; preds = %4
  store i64 0, ptr %11, align 8, !tbaa !17
  %24 = load i64, ptr %10, align 8, !tbaa !17
  %25 = load i64, ptr %9, align 8, !tbaa !17
  %26 = sub i64 %25, %24
  store i64 %26, ptr %9, align 8, !tbaa !17
  br label %27

27:                                               ; preds = %43, %23
  %28 = load i64, ptr %11, align 8, !tbaa !17
  %29 = load i64, ptr %9, align 8, !tbaa !17
  %30 = icmp ule i64 %28, %29
  br i1 %30, label %31, label %47

31:                                               ; preds = %27
  %32 = load ptr, ptr %12, align 8, !tbaa !12
  %33 = getelementptr inbounds nuw %struct.EVP_CAMELLIA_KEY, ptr %32, i32 0, i32 1
  %34 = load ptr, ptr %33, align 8, !tbaa !13
  %35 = load ptr, ptr %8, align 8, !tbaa !8
  %36 = load i64, ptr %11, align 8, !tbaa !17
  %37 = getelementptr inbounds nuw i8, ptr %35, i64 %36
  %38 = load ptr, ptr %7, align 8, !tbaa !8
  %39 = load i64, ptr %11, align 8, !tbaa !17
  %40 = getelementptr inbounds nuw i8, ptr %38, i64 %39
  %41 = load ptr, ptr %12, align 8, !tbaa !12
  %42 = getelementptr inbounds nuw %struct.EVP_CAMELLIA_KEY, ptr %41, i32 0, i32 0
  call void %34(ptr noundef %37, ptr noundef %40, ptr noundef %42)
  br label %43

43:                                               ; preds = %31
  %44 = load i64, ptr %10, align 8, !tbaa !17
  %45 = load i64, ptr %11, align 8, !tbaa !17
  %46 = add i64 %45, %44
  store i64 %46, ptr %11, align 8, !tbaa !17
  br label %27, !llvm.loop !19

47:                                               ; preds = %27
  store i32 1, ptr %5, align 4
  store i32 1, ptr %13, align 4
  br label %48

48:                                               ; preds = %47, %22
  call void @llvm.lifetime.end.p0(i64 8, ptr %12) #3
  call void @llvm.lifetime.end.p0(i64 8, ptr %11) #3
  call void @llvm.lifetime.end.p0(i64 8, ptr %10) #3
  %49 = load i32, ptr %5, align 4
  ret i32 %49
}